target datalayout = "e-m:e-p270:32:32-p271:32:32-p272:64:64-i64:64-i128:128-f80:128-n8:16:32:64-S128"
target triple = "x86_64-pc-linux-gnu"

@s_CMasks6 = internal global [5 x i64] [i64 1229782938247303441, i64 217020518514230019, i64 4222189076152335, i64 1095216660735, i64 65535], align 16

; Function Attrs: inlinehint nounwind uwtable
define internal i32 @Abc_TtWordNum(i32 noundef %0) #2 {
  %2 = alloca i32, align 4
  store i32 %0, ptr %2, align 4, !tbaa !8
  %3 = load i32, ptr %2, align 4, !tbaa !8
  %4 = icmp sle i32 %3, 6
  br i1 %4, label %5, label %6

5:                                                ; preds = %1
  br label %10

6:                                                ; preds = %1
  %7 = load i32, ptr %2, align 4, !tbaa !8
  %8 = sub nsw i32 %7, 6
  %9 = shl i32 1, %8
  br label %10

10:                                               ; preds = %6, %5
  %11 = phi i32 [ 1, %5 ], [ %9, %6 ]
  ret i32 %11
}

; Function Attrs: inlinehint nounwind uwtable
define internal i32 @Abc_TtCompare2VarCofsRev(ptr noundef %0, i32 noundef %1, i32 noundef %2, i32 noundef %3, i32 noundef %4) #2 {
  %6 = alloca i32, align 4
  %7 = alloca ptr, align 8
  %8 = alloca i32, align 4
  %9 = alloca i32, align 4
  %10 = alloca i32, align 4
  %11 = alloca i32, align 4
  %12 = alloca i64, align 8
  %13 = alloca i64, align 8
  %14 = alloca i32, align 4
  %15 = alloca i64, align 8
  %16 = alloca i64, align 8
  %17 = alloca i32, align 4
  %18 = alloca i32, align 4
  %19 = alloca ptr, align 8
  %20 = alloca ptr, align 8
  %21 = alloca ptr, align 8
  %22 = alloca i32, align 4
  %23 = alloca i32, align 4
  %24 = alloca i32, align 4
  %25 = alloca i32, align 4
  store ptr %0, ptr %7, align 8, !tbaa !3
  store i32 %1, ptr %8, align 4, !tbaa !8
  store i32 %2, ptr %9, align 4, !tbaa !8
  store i32 %3, ptr %10, align 4, !tbaa !8
  store i32 %4, ptr %11, align 4, !tbaa !8
  %26 = load i32, ptr %8, align 4, !tbaa !8
  %27 = icmp eq i32 %26, 1
  br i1 %27, label %28, label %67

28:                                               ; preds = %5
  call void @llvm.lifetime.start.p0(i64 8, ptr %12) #12
  %29 = load ptr, ptr %7, align 8, !tbaa !3
  %30 = getelementptr inbounds i64, ptr %29, i64 0
  %31 = load i64, ptr %30, align 8, !tbaa !10
  %32 = load i32, ptr %10, align 4, !tbaa !8
  %33 = load i32, ptr %9, align 4, !tbaa !8
  %34 = shl i32 1, %33
  %35 = mul nsw i32 %32, %34
  %36 = zext i32 %35 to i64
  %37 = lshr i64 %31, %36
  %38 = load i32, ptr %9, align 4, !tbaa !8
  %39 = sext i32 %38 to i64
  %40 = getelementptr inbounds [5 x i64], ptr @s_CMasks6, i64 0, i64 %39
  %41 = load i64, ptr %40, align 8, !tbaa !10
  %42 = and i64 %37, %41
  store i64 %42, ptr %12, align 8, !tbaa !10
  call void @llvm.lifetime.start.p0(i64 8, ptr %13) #12
  %43 = load ptr, ptr %7, align 8, !tbaa !3
  %44 = getelementptr inbounds i64, ptr %43, i64 0
  %45 = load i64, ptr %44, align 8, !tbaa !10
  %46 = load i32, ptr %11, align 4, !tbaa !8
  %47 = load i32, ptr %9, align 4, !tbaa !8
  %48 = shl i32 1, %47
  %49 = mul nsw i32 %46, %48
  %50 = zext i32 %49 to i64
  %51 = lshr i64 %45, %50
  %52 = load i32, ptr %9, align 4, !tbaa !8
  %53 = sext i32 %52 to i64
  %54 = getelementptr inbounds [5 x i64], ptr @s_CMasks6, i64 0, i64 %53
  %55 = load i64, ptr %54, align 8, !tbaa !10
  %56 = and i64 %51, %55
  store i64 %56, ptr %13, align 8, !tbaa !10
  %57 = load i64, ptr %12, align 8, !tbaa !10
  %58 = load i64, ptr %13, align 8, !tbaa !10
  %59 = icmp ne i64 %57, %58
  br i1 %59, label %60, label %65

60:                                               ; preds = %28
  %61 = load i64, ptr %12, align 8, !tbaa !10
  %62 = load i64, ptr %13, align 8, !tbaa !10
  %63 = icmp ult i64 %61, %62
  %64 = select i1 %63, i32 -1, i32 1
  store i32 %64, ptr %6, align 4
  store i32 1, ptr %14, align 4
  br label %66

65:                                               ; preds = %28
  store i32 0, ptr %6, align 4
  store i32 1, ptr %14, align 4
  br label %66

66:                                               ; preds = %65, %60
  call void @llvm.lifetime.end.p0(i64 8, ptr %13) #12
  call void @llvm.lifetime.end.p0(i64 8, ptr %12) #12
  br label %245

67:                                               ; preds = %5
  %68 = load i32, ptr %9, align 4, !tbaa !8
  %69 = icmp sle i32 %68, 4
  br i1 %69, label %70, label %123

70:                                               ; preds = %67
  call void @llvm.lifetime.start.p0(i64 8, ptr %15) #12
  call void @llvm.lifetime.start.p0(i64 8, ptr %16) #12
  call void @llvm.lifetime.start.p0(i64 4, ptr %17) #12
  call void @llvm.lifetime.start.p0(i64 4, ptr %18) #12
  %71 = load i32, ptr %9, align 4, !tbaa !8
  %72 = shl i32 1, %71
  store i32 %72, ptr %18, align 4, !tbaa !8
  %73 = load i32, ptr %8, align 4, !tbaa !8
  %74 = sub nsw i32 %73, 1
  store i32 %74, ptr %17, align 4, !tbaa !8
  br label %75

75:                                               ; preds = %118, %70
  %76 = load i32, ptr %17, align 4, !tbaa !8
  %77 = icmp sge i32 %76, 0
  br i1 %77, label %78, label %121

78:                                               ; preds = %75
  %79 = load ptr, ptr %7, align 8, !tbaa !3
  %80 = load i32, ptr %17, align 4, !tbaa !8
  %81 = sext i32 %80 to i64
  %82 = getelementptr inbounds i64, ptr %79, i64 %81
  %83 = load i64, ptr %82, align 8, !tbaa !10
  %84 = load i32, ptr %10, align 4, !tbaa !8
  %85 = load i32, ptr %18, align 4, !tbaa !8
  %86 = mul nsw i32 %84, %85
  %87 = zext i32 %86 to i64
  %88 = lshr i64 %83, %87
  %89 = load i32, ptr %9, align 4, !tbaa !8
  %90 = sext i32 %89 to i64
  %91 = getelementptr inbounds [5 x i64], ptr @s_CMasks6, i64 0, i64 %90
  %92 = load i64, ptr %91, align 8, !tbaa !10
  %93 = and i64 %88, %92
  store i64 %93, ptr %15, align 8, !tbaa !10
  %94 = load ptr, ptr %7, align 8, !tbaa !3
  %95 = load i32, ptr %17, align 4, !tbaa !8
  %96 = sext i32 %95 to i64
  %97 = getelementptr inbounds i64, ptr %94, i64 %96
  %98 = load i64, ptr %97, align 8, !tbaa !10
  %99 = load i32, ptr %11, align 4, !tbaa !8
  %100 = load i32, ptr %18, align 4, !tbaa !8
  %101 = mul nsw i32 %99, %100
  %102 = zext i32 %101 to i64
  %103 = lshr i64 %98, %102
  %104 = load i32, ptr %9, align 4, !tbaa !8
  %105 = sext i32 %104 to i64
  %106 = getelementptr inbounds [5 x i64], ptr @s_CMasks6, i64 0, i64 %105
  %107 = load i64, ptr %106, align 8, !tbaa !10
  %108 = and i64 %103, %107
  store i64 %108, ptr %16, align 8, !tbaa !10
  %109 = load i64, ptr %15, align 8, !tbaa !10
  %110 = load i64, ptr %16, align 8, !tbaa !10
  %111 = icmp ne i64 %109, %110
  br i1 %111, label %112, label %117

112:                                              ; preds = %78
  %113 = load i64, ptr %15, align 8, !tbaa !10
  %114 = load i64, ptr %16, align 8, !tbaa !10
  %115 = icmp ult i64 %113, %114
  %116 = select i1 %115, i32 -1, i32 1
  store i32 %116, ptr %6, align 4
  store i32 1, ptr %14, align 4
  br label %122

117:                                              ; preds = %78
  br label %118

118:                                              ; preds = %117
  %119 = load i32, ptr %17, align 4, !tbaa !8
  %120 = add nsw i32 %119, -1
  store i32 %120, ptr %17, align 4, !tbaa !8
  br label %75, !llvm.loop !45

121:                                              ; preds = %75
  store i32 0, ptr %6, align 4
  store i32 1, ptr %14, align 4
  br label %122

122:                                              ; preds = %121, %112
  call void @llvm.lifetime.end.p0(i64 4, ptr %18) #12
  call void @llvm.lifetime.end.p0(i64 4, ptr %17) #12
  call void @llvm.lifetime.end.p0(i64 8, ptr %16) #12
  call void @llvm.lifetime.end.p0(i64 8, ptr %15) #12
  br label %245

123:                                              ; preds = %67
  %124 = load i32, ptr %9, align 4, !tbaa !8
  %125 = icmp eq i32 %124, 5
  br i1 %125, label %126, label %169

126:                                              ; preds = %123
  call void @llvm.lifetime.start.p0(i64 8, ptr %19) #12
  %127 = load ptr, ptr %7, align 8, !tbaa !3
  store ptr %127, ptr %19, align 8, !tbaa !14
  call void @llvm.lifetime.start.p0(i64 8, ptr %20) #12
  %128 = load ptr, ptr %7, align 8, !tbaa !3
  %129 = load i32, ptr %8, align 4, !tbaa !8
  %130 = sext i32 %129 to i64
  %131 = getelementptr inbounds i64, ptr %128, i64 %130
  store ptr %131, ptr %20, align 8, !tbaa !14
  %132 = load ptr, ptr %20, align 8, !tbaa !14
  %133 = getelementptr inbounds i32, ptr %132, i64 -4
  store ptr %133, ptr %20, align 8, !tbaa !14
  br label %134

134:                                              ; preds = %164, %126
  %135 = load ptr, ptr %20, align 8, !tbaa !14
  %136 = load ptr, ptr %19, align 8, !tbaa !14
  %137 = icmp uge ptr %135, %136
  br i1 %137, label %138, label %167

138:                                              ; preds = %134
  %139 = load ptr, ptr %20, align 8, !tbaa !14
  %140 = load i32, ptr %10, align 4, !tbaa !8
  %141 = sext i32 %140 to i64
  %142 = getelementptr inbounds i32, ptr %139, i64 %141
  %143 = load i32, ptr %142, align 4, !tbaa !8
  %144 = load ptr, ptr %20, align 8, !tbaa !14
  %145 = load i32, ptr %11, align 4, !tbaa !8
  %146 = sext i32 %145 to i64
  %147 = getelementptr inbounds i32, ptr %144, i64 %146
  %148 = load i32, ptr %147, align 4, !tbaa !8
  %149 = icmp ne i32 %143, %148
  br i1 %149, label %150, label %163

150:                                              ; preds = %138
  %151 = load ptr, ptr %20, align 8, !tbaa !14
  %152 = load i32, ptr %10, align 4, !tbaa !8
  %153 = sext i32 %152 to i64
  %154 = getelementptr inbounds i32, ptr %151, i64 %153
  %155 = load i32, ptr %154, align 4, !tbaa !8
  %156 = load ptr, ptr %20, align 8, !tbaa !14
  %157 = load i32, ptr %11, align 4, !tbaa !8
  %158 = sext i32 %157 to i64
  %159 = getelementptr inbounds i32, ptr %156, i64 %158
  %160 = load i32, ptr %159, align 4, !tbaa !8
  %161 = icmp ult i32 %155, %160
  %162 = select i1 %161, i32 -1, i32 1
  store i32 %162, ptr %6, align 4
  store i32 1, ptr %14, align 4
  br label %168

163:                                              ; preds = %138
  br label %164

164:                                              ; preds = %163
  %165 = load ptr, ptr %20, align 8, !tbaa !14
  %166 = getelementptr inbounds i32, ptr %165, i64 -4
  store ptr %166, ptr %20, align 8, !tbaa !14
  br label %134, !llvm.loop !46

167:                                              ; preds = %134
  store i32 0, ptr %6, align 4
  store i32 1, ptr %14, align 4
  br label %168

168:                                              ; preds = %167, %150
  call void @llvm.lifetime.end.p0(i64 8, ptr %20) #12
  call void @llvm.lifetime.end.p0(i64 8, ptr %19) #12
  br label %245

169:                                              ; preds = %123
  call void @llvm.lifetime.start.p0(i64 8, ptr %21) #12
  %170 = load ptr, ptr %7, align 8, !tbaa !3
  %171 = load i32, ptr %8, align 4, !tbaa !8
  %172 = sext i32 %171 to i64
  %173 = getelementptr inbounds i64, ptr %170, i64 %172
  store ptr %173, ptr %21, align 8, !tbaa !3
  call void @llvm.lifetime.start.p0(i64 4, ptr %22) #12
  call void @llvm.lifetime.start.p0(i64 4, ptr %23) #12
  %174 = load i32, ptr %9, align 4, !tbaa !8
  %175 = call i32 @Abc_TtWordNum(i32 noundef %174)
  store i32 %175, ptr %23, align 4, !tbaa !8
  call void @llvm.lifetime.start.p0(i64 4, ptr %24) #12
  %176 = load i32, ptr %10, align 4, !tbaa !8
  %177 = load i32, ptr %23, align 4, !tbaa !8
  %178 = mul nsw i32 %176, %177
  store i32 %178, ptr %24, align 4, !tbaa !8
  call void @llvm.lifetime.start.p0(i64 4, ptr %25) #12
  %179 = load i32, ptr %11, align 4, !tbaa !8
  %180 = load i32, ptr %23, align 4, !tbaa !8
  %181 = mul nsw i32 %179, %180
  store i32 %181, ptr %25, align 4, !tbaa !8
  %182 = load i32, ptr %23, align 4, !tbaa !8
  %183 = mul nsw i32 4, %182
  %184 = load ptr, ptr %21, align 8, !tbaa !3
  %185 = sext i32 %183 to i64
  %186 = sub i64 0, %185
  %187 = getelementptr inbounds i64, ptr %184, i64 %186
  store ptr %187, ptr %21, align 8, !tbaa !3
  br label %188

188:                                              ; preds = %236, %169
  %189 = load ptr, ptr %21, align 8, !tbaa !3
  %190 = load ptr, ptr %7, align 8, !tbaa !3
  %191 = icmp uge ptr %189, %190
  br i1 %191, label %192, label %243

192:                                              ; preds = %188
  %193 = load i32, ptr %23, align 4, !tbaa !8
  %194 = sub nsw i32 %193, 1
  store i32 %194, ptr %22, align 4, !tbaa !8
  br label %195

195:                                              ; preds = %232, %192
  %196 = load i32, ptr %22, align 4, !tbaa !8
  %197 = icmp sge i32 %196, 0
  br i1 %197, label %198, label %235

198:                                              ; preds = %195
  %199 = load ptr, ptr %21, align 8, !tbaa !3
  %200 = load i32, ptr %22, align 4, !tbaa !8
  %201 = load i32, ptr %24, align 4, !tbaa !8
  %202 = add nsw i32 %200, %201
  %203 = sext i32 %202 to i64
  %204 = getelementptr inbounds i64, ptr %199, i64 %203
  %205 = load i64, ptr %204, align 8, !tbaa !10
  %206 = load ptr, ptr %21, align 8, !tbaa !3
  %207 = load i32, ptr %22, align 4, !tbaa !8
  %208 = load i32, ptr %25, align 4, !tbaa !8
  %209 = add nsw i32 %207, %208
  %210 = sext i32 %209 to i64
  %211 = getelementptr inbounds i64, ptr %206, i64 %210
  %212 = load i64, ptr %211, align 8, !tbaa !10
  %213 = icmp ne i64 %205, %212
  br i1 %213, label %214, label %231

214:                                              ; preds = %198
  %215 = load ptr, ptr %21, align 8, !tbaa !3
  %216 = load i32, ptr %22, align 4, !tbaa !8
  %217 = load i32, ptr %24, align 4, !tbaa !8
  %218 = add nsw i32 %216, %217
  %219 = sext i32 %218 to i64
  %220 = getelementptr inbounds i64, ptr %215, i64 %219
  %221 = load i64, ptr %220, align 8, !tbaa !10
  %222 = load ptr, ptr %21, align 8, !tbaa !3
  %223 = load i32, ptr %22, align 4, !tbaa !8
  %224 = load i32, ptr %25, align 4, !tbaa !8
  %225 = add nsw i32 %223, %224
  %226 = sext i32 %225 to i64
  %227 = getelementptr inbounds i64, ptr %222, i64 %226
  %228 = load i64, ptr %227, align 8, !tbaa !10
  %229 = icmp ult i64 %221, %228
  %230 = select i1 %229, i32 -1, i32 1
  store i32 %230, ptr %6, align 4
  store i32 1, ptr %14, align 4
  br label %244

231:                                              ; preds = %198
  br label %232

232:                                              ; preds = %231
  %233 = load i32, ptr %22, align 4, !tbaa !8
  %234 = add nsw i32 %233, -1
  store i32 %234, ptr %22, align 4, !tbaa !8
  br label %195, !llvm.loop !47

235:                                              ; preds = %195
  br label %236

236:                                              ; preds = %235
  %237 = load i32, ptr %23, align 4, !tbaa !8
  %238 = mul nsw i32 4, %237
  %239 = load ptr, ptr %21, align 8, !tbaa !3
  %240 = sext i32 %238 to i64
  %241 = sub i64 0, %240
  %242 = getelementptr inbounds i64, ptr %239, i64 %241
  store ptr %242, ptr %21, align 8, !tbaa !3
  br label %188, !llvm.loop !48

243:                                              ; preds = %188
  store i32 0, ptr %6, align 4
  store i32 1, ptr %14, align 4
  br label %244

244:                                              ; preds = %243, %214
  call void @llvm.lifetime.end.p0(i64 4, ptr %25) #12
  call void @llvm.lifetime.end.p0(i64 4, ptr %24) #12
  call void @llvm.lifetime.end.p0(i64 4, ptr %23) #12
  call void @llvm.lifetime.end.p0(i64 4, ptr %22) #12
  call void @llvm.lifetime.end.p0(i64 8, ptr %21) #12
  br label %245

245:                                              ; preds = %244, %168, %122, %66
  %246 = load i32, ptr %6, align 4
  ret i32 %246
}