; Function Attrs: inlinehint nofree norecurse nosync nounwind memory(argmem: read) uwtable
define internal fastcc range(i32 -1, 2) i32 @Abc_TtCompare2VarCofsRev(ptr noundef readonly %0, i32 noundef range(i32 2, 1) %1, i32 noundef %2, i32 noundef range(i32 0, 3) %3, i32 noundef range(i32 1, 4) %4) unnamed_addr #8 {
  %6 = icmp slt i32 %2, 5
  br i1 %6, label %.preheader, label %29

.preheader:                                       ; preds = %5
  %7 = shl nuw nsw i32 %3, %2
  %8 = zext nneg i32 %7 to i64
  %9 = sext i32 %2 to i64
  %10 = getelementptr inbounds [5 x i64], ptr @s_CMasks6, i64 0, i64 %9
  %11 = shl nuw nsw i32 %4, %2
  %12 = zext nneg i32 %11 to i64
  %13 = zext i32 %1 to i64
  br label %14

14:                                               ; preds = %.preheader, %17
  %indvars.iv116 = phi i64 [ %13, %.preheader ], [ %18, %17 ]
  %15 = trunc nuw i64 %indvars.iv116 to i32
  %16 = icmp sgt i32 %15, 0
  br i1 %16, label %17, label %.loopexit

17:                                               ; preds = %14
  %18 = add nsw i64 %indvars.iv116, -1
  %19 = getelementptr inbounds nuw i64, ptr %0, i64 %18
  %20 = load i64, ptr %19, align 8, !tbaa !3
  %21 = lshr i64 %20, %8
  %22 = load i64, ptr %10, align 8, !tbaa !3
  %23 = and i64 %21, %22
  %24 = lshr i64 %20, %12
  %25 = and i64 %24, %22
  %.not95 = icmp eq i64 %23, %25
  br i1 %.not95, label %14, label %26, !llvm.loop !39

26:                                               ; preds = %17
  %27 = icmp ult i64 %23, %25
  %28 = select i1 %27, i32 -1, i32 1
  br label %.loopexit

29:                                               ; preds = %5
  %30 = icmp eq i32 %2, 5
  %31 = sext i32 %1 to i64
  %32 = getelementptr inbounds i64, ptr %0, i64 %31
  br i1 %30, label %33, label %45

33:                                               ; preds = %29
  %34 = zext nneg i32 %3 to i64
  %35 = zext nneg i32 %4 to i64
  br label %36

36:                                               ; preds = %37, %33
  %.pn94 = phi ptr [ %32, %33 ], [ %.079, %37 ]
  %.079 = getelementptr inbounds i8, ptr %.pn94, i64 -16
  %.not92 = icmp ult ptr %.079, %0
  br i1 %.not92, label %.loopexit, label %37

37:                                               ; preds = %36
  %38 = getelementptr inbounds nuw i32, ptr %.079, i64 %34
  %39 = load i32, ptr %38, align 4, !tbaa !10
  %40 = getelementptr inbounds nuw i32, ptr %.079, i64 %35
  %41 = load i32, ptr %40, align 4, !tbaa !10
  %.not93 = icmp eq i32 %39, %41
  br i1 %.not93, label %36, label %42, !llvm.loop !40

42:                                               ; preds = %37
  %43 = icmp ult i32 %39, %41
  %44 = select i1 %43, i32 -1, i32 1
  br label %.loopexit

45:                                               ; preds = %29
  %46 = icmp samesign ult i32 %2, 7
  %47 = add nsw i32 %2, -6
  %48 = shl nuw i32 1, %47
  %49 = select i1 %46, i32 1, i32 %48
  %50 = shl nsw i32 %49, 2
  %51 = sext i32 %50 to i64
  %52 = sub nsw i64 0, %51
  %.078105 = getelementptr inbounds i64, ptr %32, i64 %52
  %.not106 = icmp ult ptr %.078105, %0
  br i1 %.not106, label %.loopexit, label %.preheader97.preheader

.preheader97.preheader:                           ; preds = %45
  %53 = select i1 %46, i32 0, i32 %47
  %54 = shl i32 %4, %53
  %55 = shl i32 %3, %53
  %56 = sext i32 %49 to i64
  %57 = sext i32 %55 to i64
  %58 = sext i32 %54 to i64
  br label %.preheader97

.loopexit98:                                      ; preds = %59
  %.078 = getelementptr inbounds i64, ptr %.078107, i64 %52
  %.not = icmp ult ptr %.078, %0
  br i1 %.not, label %.loopexit, label %.preheader97, !llvm.loop !41

.preheader97:                                     ; preds = %.preheader97.preheader, %.loopexit98
  %.078107 = phi ptr [ %.078, %.loopexit98 ], [ %.078105, %.preheader97.preheader ]
  %invariant.gep = getelementptr i64, ptr %.078107, i64 %57
  %invariant.gep127 = getelementptr i64, ptr %.078107, i64 %58
  br label %59

59:                                               ; preds = %.preheader97, %61
  %indvars.iv = phi i64 [ %56, %.preheader97 ], [ %indvars.iv.next, %61 ]
  %60 = icmp sgt i64 %indvars.iv, 0
  br i1 %60, label %61, label %.loopexit98

61:                                               ; preds = %59
  %indvars.iv.next = add nsw i64 %indvars.iv, -1
  %gep = getelementptr i64, ptr %invariant.gep, i64 %indvars.iv.next
  %62 = load i64, ptr %gep, align 8, !tbaa !3
  %gep128 = getelementptr i64, ptr %invariant.gep127, i64 %indvars.iv.next
  %63 = load i64, ptr %gep128, align 8, !tbaa !3
  %.not91 = icmp eq i64 %62, %63
  br i1 %.not91, label %59, label %64, !llvm.loop !42

64:                                               ; preds = %61
  %65 = icmp ult i64 %62, %63
  %66 = select i1 %65, i32 -1, i32 1
  br label %.loopexit

.loopexit:                                        ; preds = %.loopexit98, %36, %14, %45, %64, %42, %26
  %.1 = phi i32 [ %28, %26 ], [ %44, %42 ], [ %66, %64 ], [ 0, %45 ], [ 0, %14 ], [ 0, %36 ], [ 0, %.loopexit98 ]
  ret i32 %.1
}